target datalayout = "e-m:e-p270:32:32-p271:32:32-p272:64:64-i64:64-i128:128-f80:128-n8:16:32:64-S128"
target triple = "x86_64-pc-linux-gnu"

; Function Attrs: mustprogress nounwind uwtable
define noundef i32 @_ZN6icu_7718CollationFastLatin8getCasesEjaj(i32 noundef %0, i8 noundef signext %1, i32 noundef %2) #2 align 2 {
  %4 = alloca i32, align 4
  %5 = alloca i8, align 1
  %6 = alloca i32, align 4
  %7 = alloca i32, align 4
  %8 = alloca i32, align 4
  store i32 %0, ptr %4, align 4, !tbaa !12
  store i8 %1, ptr %5, align 1, !tbaa !32
  store i32 %2, ptr %6, align 4, !tbaa !12
  %9 = load i32, ptr %6, align 4, !tbaa !12
  %10 = icmp ule i32 %9, 65535
  br i1 %10, label %11, label %40

11:                                               ; preds = %3
  %12 = load i32, ptr %6, align 4, !tbaa !12
  %13 = icmp uge i32 %12, 4096
  br i1 %13, label %14, label %28

14:                                               ; preds = %11
  call void @llvm.lifetime.start.p0(i64 4, ptr %7) #6
  %15 = load i32, ptr %6, align 4, !tbaa !12
  store i32 %15, ptr %7, align 4, !tbaa !12
  %16 = load i32, ptr %6, align 4, !tbaa !12
  %17 = and i32 %16, 24
  store i32 %17, ptr %6, align 4, !tbaa !12
  %18 = load i8, ptr %5, align 1, !tbaa !32
  %19 = icmp ne i8 %18, 0
  br i1 %19, label %27, label %20

20:                                               ; preds = %14
  %21 = load i32, ptr %7, align 4, !tbaa !12
  %22 = and i32 %21, 992
  %23 = icmp uge i32 %22, 384
  br i1 %23, label %24, label %27

24:                                               ; preds = %20
  %25 = load i32, ptr %6, align 4, !tbaa !12
  %26 = or i32 %25, 524288
  store i32 %26, ptr %6, align 4, !tbaa !12
  br label %27

27:                                               ; preds = %24, %20, %14
  call void @llvm.lifetime.end.p0(i64 4, ptr %7) #6
  br label %39

28:                                               ; preds = %11
  %29 = load i32, ptr %6, align 4, !tbaa !12
  %30 = load i32, ptr %4, align 4, !tbaa !12
  %31 = icmp ugt i32 %29, %30
  br i1 %31, label %32, label %33

32:                                               ; preds = %28
  store i32 8, ptr %6, align 4, !tbaa !12
  br label %38

33:                                               ; preds = %28
  %34 = load i32, ptr %6, align 4, !tbaa !12
  %35 = icmp uge i32 %34, 3072
  br i1 %35, label %36, label %37

36:                                               ; preds = %33
  store i32 0, ptr %6, align 4, !tbaa !12
  br label %37

37:                                               ; preds = %36, %33
  br label %38

38:                                               ; preds = %37, %32
  br label %39

39:                                               ; preds = %38, %27
  br label %67

40:                                               ; preds = %3
  call void @llvm.lifetime.start.p0(i64 4, ptr %8) #6
  %41 = load i32, ptr %6, align 4, !tbaa !12
  %42 = and i32 %41, 65535
  store i32 %42, ptr %8, align 4, !tbaa !12
  %43 = load i32, ptr %8, align 4, !tbaa !12
  %44 = icmp uge i32 %43, 4096
  br i1 %44, label %45, label %59

45:                                               ; preds = %40
  %46 = load i8, ptr %5, align 1, !tbaa !32
  %47 = icmp ne i8 %46, 0
  br i1 %47, label %48, label %55

48:                                               ; preds = %45
  %49 = load i32, ptr %6, align 4, !tbaa !12
  %50 = and i32 %49, -67108864
  %51 = icmp eq i32 %50, 0
  br i1 %51, label %52, label %55

52:                                               ; preds = %48
  %53 = load i32, ptr %6, align 4, !tbaa !12
  %54 = and i32 %53, 24
  store i32 %54, ptr %6, align 4, !tbaa !12
  br label %58

55:                                               ; preds = %48, %45
  %56 = load i32, ptr %6, align 4, !tbaa !12
  %57 = and i32 %56, 1572888
  store i32 %57, ptr %6, align 4, !tbaa !12
  br label %58

58:                                               ; preds = %55, %52
  br label %66

59:                                               ; preds = %40
  %60 = load i32, ptr %8, align 4, !tbaa !12
  %61 = load i32, ptr %4, align 4, !tbaa !12
  %62 = icmp ugt i32 %60, %61
  br i1 %62, label %63, label %64

63:                                               ; preds = %59
  store i32 524296, ptr %6, align 4, !tbaa !12
  br label %65

64:                                               ; preds = %59
  store i32 0, ptr %6, align 4, !tbaa !12
  br label %65

65:                                               ; preds = %64, %63
  br label %66

66:                                               ; preds = %65, %58
  call void @llvm.lifetime.end.p0(i64 4, ptr %8) #6
  br label %67

67:                                               ; preds = %66, %39
  %68 = load i32, ptr %6, align 4, !tbaa !12
  ret i32 %68
}