; Function Attrs: mustprogress nofree norecurse nosync nounwind willreturn memory(none) uwtable
define noundef range(i32 0, 1572889) i32 @_ZN6icu_7718CollationFastLatin8getCasesEjaj(i32 noundef %0, i8 noundef signext %1, i32 noundef %2) local_unnamed_addr #6 align 2 {
  %4 = icmp ult i32 %2, 65536
  br i1 %4, label %5, label %16

5:                                                ; preds = %3
  %6 = icmp samesign ugt i32 %2, 4095
  br i1 %6, label %7, label %12

7:                                                ; preds = %5
  %8 = and i32 %2, 24
  %.not21 = icmp eq i8 %1, 0
  %9 = and i32 %2, 896
  %10 = icmp samesign ugt i32 %9, 383
  %or.cond = select i1 %.not21, i1 %10, i1 false
  %11 = or disjoint i32 %8, 524288
  %.0 = select i1 %or.cond, i32 %11, i32 %8
  br label %27

12:                                               ; preds = %5
  %13 = icmp ugt i32 %2, %0
  br i1 %13, label %27, label %14

14:                                               ; preds = %12
  %15 = icmp samesign ugt i32 %2, 3071
  %spec.store.select = select i1 %15, i32 0, i32 %2
  br label %27

16:                                               ; preds = %3
  %17 = and i32 %2, 65535
  %18 = icmp samesign ugt i32 %17, 4095
  br i1 %18, label %19, label %25

19:                                               ; preds = %16
  %.not = icmp ne i8 %1, 0
  %20 = icmp ult i32 %2, 67108864
  %or.cond23 = and i1 %.not, %20
  br i1 %or.cond23, label %21, label %23

21:                                               ; preds = %19
  %22 = and i32 %2, 24
  br label %27

23:                                               ; preds = %19
  %24 = and i32 %2, 1572888
  br label %27

25:                                               ; preds = %16
  %26 = icmp ugt i32 %17, %0
  %. = select i1 %26, i32 524296, i32 0
  br label %27

27:                                               ; preds = %23, %21, %25, %12, %7, %14
  %.1 = phi i32 [ %.0, %7 ], [ %spec.store.select, %14 ], [ 8, %12 ], [ %22, %21 ], [ %24, %23 ], [ %., %25 ]
  ret i32 %.1
}